target datalayout = "e-m:e-p270:32:32-p271:32:32-p272:64:64-i64:64-i128:128-f80:128-n8:16:32:64-S128"
target triple = "x86_64-pc-linux-gnu"

%struct.Gia_Man_t_ = type { ptr, ptr, i32, i32, i32, i32, ptr, ptr, i32, i32, i32, ptr, ptr, %struct.Vec_Int_t_, %struct.Vec_Int_t_, i32, i32, i32, %struct.Vec_Int_t_, ptr, ptr, ptr, i32, i32, i32, i32, ptr, ptr, ptr, ptr, ptr, i32, i32, ptr, i32, ptr, ptr, ptr, ptr, ptr, ptr, ptr, ptr, ptr, ptr, ptr, ptr, ptr, ptr, ptr, ptr, ptr, ptr, %struct.Vec_Int_t_, %struct.Vec_Int_t_, ptr, ptr, ptr, ptr, ptr, ptr, ptr, ptr, ptr, ptr, ptr, ptr, ptr, ptr, ptr, ptr, ptr, ptr, ptr, ptr, ptr, i32, float, float, ptr, ptr, i32, ptr, ptr, ptr, ptr, ptr, ptr, ptr, ptr, ptr, ptr, ptr, ptr, ptr, ptr, ptr, i64, i64, ptr, ptr, i32, i32, i32, i32, i32, i32, i32, i32, i32, i32, i32, i32, ptr, ptr, ptr, ptr, ptr, ptr, ptr, ptr, i32, i32, i32, ptr, i32, i32, ptr, ptr, ptr, ptr, ptr, ptr, i32, i32, ptr, %struct.Vec_Int_t_, %struct.Vec_Int_t_, %struct.Vec_Int_t_, ptr, ptr, ptr, i32, i32, i32, i32, ptr, ptr, ptr, ptr, ptr }
%struct.Vec_Int_t_ = type { i32, i32, ptr }
%struct.Gia_Obj_t_ = type <{ i64, i32 }>

; Function Attrs: inlinehint nounwind uwtable
define internal i32 @Vec_IntEntry(ptr noundef %0, i32 noundef %1) #3 {
  %3 = alloca ptr, align 8
  %4 = alloca i32, align 4
  store ptr %0, ptr %3, align 8, !tbaa !31
  store i32 %1, ptr %4, align 4, !tbaa !33
  %5 = load ptr, ptr %3, align 8, !tbaa !31
  %6 = getelementptr inbounds nuw %struct.Vec_Int_t_, ptr %5, i32 0, i32 2
  %7 = load ptr, ptr %6, align 8, !tbaa !55
  %8 = load i32, ptr %4, align 4, !tbaa !33
  %9 = sext i32 %8 to i64
  %10 = getelementptr inbounds i32, ptr %7, i64 %9
  %11 = load i32, ptr %10, align 4, !tbaa !33
  ret i32 %11
}

; Function Attrs: inlinehint nounwind uwtable
define internal i32 @Gia_ObjId(ptr noundef %0, ptr noundef %1) #3 {
  %3 = alloca ptr, align 8
  %4 = alloca ptr, align 8
  store ptr %0, ptr %3, align 8, !tbaa !29
  store ptr %1, ptr %4, align 8, !tbaa !34
  %5 = load ptr, ptr %4, align 8, !tbaa !34
  %6 = load ptr, ptr %3, align 8, !tbaa !29
  %7 = getelementptr inbounds nuw %struct.Gia_Man_t_, ptr %6, i32 0, i32 6
  %8 = load ptr, ptr %7, align 8, !tbaa !58
  %9 = ptrtoint ptr %5 to i64
  %10 = ptrtoint ptr %8 to i64
  %11 = sub i64 %9, %10
  %12 = sdiv exact i64 %11, 12
  %13 = trunc i64 %12 to i32
  ret i32 %13
}

; Function Attrs: inlinehint nounwind uwtable
define internal i32 @Gia_ObjIsAnd(ptr noundef %0) #3 {
  %2 = alloca ptr, align 8
  store ptr %0, ptr %2, align 8, !tbaa !34
  %3 = load ptr, ptr %2, align 8, !tbaa !34
  %4 = load i64, ptr %3, align 4
  %5 = lshr i64 %4, 31
  %6 = and i64 %5, 1
  %7 = trunc i64 %6 to i32
  %8 = icmp ne i32 %7, 0
  br i1 %8, label %15, label %9

9:                                                ; preds = %1
  %10 = load ptr, ptr %2, align 8, !tbaa !34
  %11 = load i64, ptr %10, align 4
  %12 = and i64 %11, 536870911
  %13 = trunc i64 %12 to i32
  %14 = icmp ne i32 %13, 536870911
  br label %15

15:                                               ; preds = %9, %1
  %16 = phi i1 [ false, %1 ], [ %14, %9 ]
  %17 = zext i1 %16 to i32
  ret i32 %17
}

; Function Attrs: inlinehint nounwind uwtable
define internal ptr @Gia_ManObj(ptr noundef %0, i32 noundef %1) #3 {
  %3 = alloca ptr, align 8
  %4 = alloca i32, align 4
  store ptr %0, ptr %3, align 8, !tbaa !29
  store i32 %1, ptr %4, align 4, !tbaa !33
  %5 = load ptr, ptr %3, align 8, !tbaa !29
  %6 = getelementptr inbounds nuw %struct.Gia_Man_t_, ptr %5, i32 0, i32 6
  %7 = load ptr, ptr %6, align 8, !tbaa !58
  %8 = load i32, ptr %4, align 4, !tbaa !33
  %9 = sext i32 %8 to i64
  %10 = getelementptr inbounds %struct.Gia_Obj_t_, ptr %7, i64 %9
  ret ptr %10
}

; Function Attrs: nounwind uwtable
define i32 @Gia_GlaCountNodes(ptr noundef %0, ptr noundef %1) #0 {
  %3 = alloca ptr, align 8
  %4 = alloca ptr, align 8
  %5 = alloca ptr, align 8
  %6 = alloca i32, align 4
  %7 = alloca i32, align 4
  store ptr %0, ptr %3, align 8, !tbaa !29
  store ptr %1, ptr %4, align 8, !tbaa !31
  call void @llvm.lifetime.start.p0(i64 8, ptr %5) #7
  call void @llvm.lifetime.start.p0(i64 4, ptr %6) #7
  call void @llvm.lifetime.start.p0(i64 4, ptr %7) #7
  store i32 0, ptr %7, align 4, !tbaa !33
  store i32 0, ptr %6, align 4, !tbaa !33
  br label %8

8:                                                ; preds = %38, %2
  %9 = load i32, ptr %6, align 4, !tbaa !33
  %10 = load ptr, ptr %3, align 8, !tbaa !29
  %11 = getelementptr inbounds nuw %struct.Gia_Man_t_, ptr %10, i32 0, i32 4
  %12 = load i32, ptr %11, align 8, !tbaa !38
  %13 = icmp slt i32 %9, %12
  br i1 %13, label %14, label %19

14:                                               ; preds = %8
  %15 = load ptr, ptr %3, align 8, !tbaa !29
  %16 = load i32, ptr %6, align 4, !tbaa !33
  %17 = call ptr @Gia_ManObj(ptr noundef %15, i32 noundef %16)
  store ptr %17, ptr %5, align 8, !tbaa !34
  %18 = icmp ne ptr %17, null
  br label %19

19:                                               ; preds = %14, %8
  %20 = phi i1 [ false, %8 ], [ %18, %14 ]
  br i1 %20, label %21, label %41

21:                                               ; preds = %19
  %22 = load ptr, ptr %5, align 8, !tbaa !34
  %23 = call i32 @Gia_ObjIsAnd(ptr noundef %22)
  %24 = icmp ne i32 %23, 0
  br i1 %24, label %26, label %25

25:                                               ; preds = %21
  br label %37

26:                                               ; preds = %21
  %27 = load ptr, ptr %4, align 8, !tbaa !31
  %28 = load ptr, ptr %3, align 8, !tbaa !29
  %29 = load ptr, ptr %5, align 8, !tbaa !34
  %30 = call i32 @Gia_ObjId(ptr noundef %28, ptr noundef %29)
  %31 = call i32 @Vec_IntEntry(ptr noundef %27, i32 noundef %30)
  %32 = icmp ne i32 %31, 0
  br i1 %32, label %33, label %36

33:                                               ; preds = %26
  %34 = load i32, ptr %7, align 4, !tbaa !33
  %35 = add nsw i32 %34, 1
  store i32 %35, ptr %7, align 4, !tbaa !33
  br label %36

36:                                               ; preds = %33, %26
  br label %37

37:                                               ; preds = %36, %25
  br label %38

38:                                               ; preds = %37
  %39 = load i32, ptr %6, align 4, !tbaa !33
  %40 = add nsw i32 %39, 1
  store i32 %40, ptr %6, align 4, !tbaa !33
  br label %8, !llvm.loop !76

41:                                               ; preds = %19
  %42 = load i32, ptr %7, align 4, !tbaa !33
  call void @llvm.lifetime.end.p0(i64 4, ptr %7) #7
  call void @llvm.lifetime.end.p0(i64 4, ptr %6) #7
  call void @llvm.lifetime.end.p0(i64 8, ptr %5) #7
  ret i32 %42
}