; Function Attrs: nofree norecurse nosync nounwind memory(read, inaccessiblemem: none) uwtable
define i32 @Gia_GlaCountNodes(ptr noundef readonly captures(none) %0, ptr noundef readonly captures(none) %1) local_unnamed_addr #6 {
  %3 = getelementptr inbounds nuw i8, ptr %0, i64 24
  %4 = load i32, ptr %3, align 8, !tbaa !21
  %5 = icmp sgt i32 %4, 0
  br i1 %5, label %.lr.ph, label %.critedge

.lr.ph:                                           ; preds = %2
  %6 = getelementptr i8, ptr %0, i64 32
  %.val14 = load ptr, ptr %6, align 8, !tbaa !54
  %.not = icmp eq ptr %.val14, null
  %7 = getelementptr i8, ptr %1, i64 8
  br i1 %.not, label %.critedge, label %.lr.ph.split.preheader

.lr.ph.split.preheader:                           ; preds = %.lr.ph
  %wide.trip.count = zext nneg i32 %4 to i64
  br label %.lr.ph.split

.lr.ph.split:                                     ; preds = %.lr.ph.split.preheader, %16
  %indvars.iv = phi i64 [ 0, %.lr.ph.split.preheader ], [ %indvars.iv.next, %16 ]
  %.019 = phi i32 [ 0, %.lr.ph.split.preheader ], [ %.1, %16 ]
  %8 = getelementptr inbounds nuw %struct.Gia_Obj_t_, ptr %.val14, i64 %indvars.iv
  %.val16 = load i64, ptr %8, align 4
  %9 = and i64 %.val16, 2147483648
  %.not.i = icmp ne i64 %9, 0
  %10 = and i64 %.val16, 536870911
  %11 = icmp eq i64 %10, 536870911
  %narrow.i.not = or i1 %.not.i, %11
  br i1 %narrow.i.not, label %16, label %12

12:                                               ; preds = %.lr.ph.split
  %.val = load ptr, ptr %7, align 8, !tbaa !41
  %13 = getelementptr inbounds nuw i32, ptr %.val, i64 %indvars.iv
  %14 = load i32, ptr %13, align 4, !tbaa !42
  %.not13 = icmp ne i32 %14, 0
  %15 = zext i1 %.not13 to i32
  %spec.select = add nsw i32 %.019, %15
  br label %16

16:                                               ; preds = %12, %.lr.ph.split
  %.1 = phi i32 [ %.019, %.lr.ph.split ], [ %spec.select, %12 ]
  %indvars.iv.next = add nuw nsw i64 %indvars.iv, 1
  %exitcond.not = icmp eq i64 %indvars.iv.next, %wide.trip.count
  br i1 %exitcond.not, label %.critedge, label %.lr.ph.split, !llvm.loop !65

.critedge:                                        ; preds = %16, %.lr.ph, %2
  %.0.lcssa = phi i32 [ 0, %2 ], [ 0, %.lr.ph ], [ %.1, %16 ]
  ret i32 %.0.lcssa
}